; Function Attrs: nounwind uwtable
define void @_ZTv0_n72_N10colvarbiasD0Ev(ptr noundef %0) unnamed_addr #5 align 2 {
  %2 = load ptr, ptr %0, align 8
  %3 = getelementptr inbounds i8, ptr %2, i64 -72
  %4 = load i64, ptr %3, align 8
  %5 = getelementptr inbounds i8, ptr %0, i64 %4
  tail call void @_ZN10colvarbiasD2Ev(ptr noundef nonnull align 8 dereferenceable(312) %5, ptr noundef nonnull @_ZTT10colvarbias) #23
  %6 = getelementptr inbounds i8, ptr %5, i64 632
  tail call void @_ZN10colvardepsD2Ev(ptr noundef nonnull align 8 dereferenceable(120) %6) #23
  %7 = getelementptr inbounds i8, ptr %5, i64 312
  tail call void @_ZN11colvarparseD2Ev(ptr noundef nonnull align 8 dereferenceable(320) %7) #23
  tail call void @_ZdlPv(ptr noundef nonnull %5) #24
  ret void
}